target datalayout = "e-m:e-p270:32:32-p271:32:32-p272:64:64-i64:64-i128:128-f80:128-n8:16:32:64-S128"
target triple = "x86_64-unknown-linux-gnu"

%struct.AddressSpace = type { %struct.rcu_head, ptr, ptr, ptr, i32, i32, ptr, %union.anon, %union.anon.1 }
%struct.rcu_head = type { ptr, ptr }
%union.anon = type { %struct.QTailQLink }
%struct.QTailQLink = type { ptr, ptr }
%union.anon.1 = type { %struct.QTailQLink }
%struct.MemTxAttrs = type { i32 }
%struct.timeval = type { i64, i64 }

@address_space_io = external global %struct.AddressSpace, align 8
@trace_events_enabled_count = external global i32, align 4
@_TRACE_CPU_OUT_DSTATE = external global i16, align 2
@message_with_timestamp = external global i8, align 1
@.str.2 = private unnamed_addr constant [45 x i8] c"%d@%zu.%06zu:cpu_out addr 0x%x(%c) value %u\0A\00", align 1
@.str.3 = private unnamed_addr constant [32 x i8] c"cpu_out addr 0x%x(%c) value %u\0A\00", align 1
@qemu_loglevel = external global i32, align 4

; Function Attrs: nounwind sspstrong uwtable
define internal zeroext i1 @qemu_loglevel_mask(i32 noundef %mask) #0 {
entry:
  %mask.addr = alloca i32, align 4
  store i32 %mask, ptr %mask.addr, align 4
  %0 = load i32, ptr @qemu_loglevel, align 4
  %1 = load i32, ptr %mask.addr, align 4
  %and = and i32 %0, %1
  %cmp = icmp ne i32 %and, 0
  ret i1 %cmp
}

; Function Attrs: nounwind sspstrong uwtable
define internal void @stl_he_p(ptr noundef %ptr, i32 noundef %v) #0 {
entry:
  %ptr.addr = alloca ptr, align 8
  %v.addr = alloca i32, align 4
  store ptr %ptr, ptr %ptr.addr, align 8
  store i32 %v, ptr %v.addr, align 4
  %0 = load ptr, ptr %ptr.addr, align 8
  call void @llvm.memcpy.p0.p0.i64(ptr align 1 %0, ptr align 4 %v.addr, i64 4, i1 false)
  ret void
}

; Function Attrs: nounwind sspstrong uwtable
define internal void @_nocheck__trace_cpu_out(i32 noundef %addr, i8 noundef signext %size, i32 noundef %val) #0 {
entry:
  %addr.addr = alloca i32, align 4
  %size.addr = alloca i8, align 1
  %val.addr = alloca i32, align 4
  %_now = alloca %struct.timeval, align 8
  store i32 %addr, ptr %addr.addr, align 4
  store i8 %size, ptr %size.addr, align 1
  store i32 %val, ptr %val.addr, align 4
  %0 = load i32, ptr @trace_events_enabled_count, align 4
  %tobool = icmp ne i32 %0, 0
  %lnot = xor i1 %tobool, true
  %lnot1 = xor i1 %lnot, true
  %lnot.ext = zext i1 %lnot1 to i32
  %conv = sext i32 %lnot.ext to i64
  %tobool2 = icmp ne i64 %conv, 0
  br i1 %tobool2, label %land.lhs.true, label %if.end13

land.lhs.true:                                    ; preds = %entry
  %1 = load i16, ptr @_TRACE_CPU_OUT_DSTATE, align 2
  %conv3 = zext i16 %1 to i32
  %tobool4 = icmp ne i32 %conv3, 0
  br i1 %tobool4, label %land.lhs.true5, label %if.end13

land.lhs.true5:                                   ; preds = %land.lhs.true
  %call = call zeroext i1 @qemu_loglevel_mask(i32 noundef 32768)
  br i1 %call, label %if.then, label %if.end13

if.then:                                          ; preds = %land.lhs.true5
  %2 = load i8, ptr @message_with_timestamp, align 1
  %tobool7 = trunc i8 %2 to i1
  br i1 %tobool7, label %if.then8, label %if.else

if.then8:                                         ; preds = %if.then
  %call9 = call i32 @gettimeofday(ptr noundef %_now, ptr noundef null) #10
  %call10 = call i32 @qemu_get_thread_id()
  %tv_sec = getelementptr inbounds %struct.timeval, ptr %_now, i32 0, i32 0
  %3 = load i64, ptr %tv_sec, align 8
  %tv_usec = getelementptr inbounds %struct.timeval, ptr %_now, i32 0, i32 1
  %4 = load i64, ptr %tv_usec, align 8
  %5 = load i32, ptr %addr.addr, align 4
  %6 = load i8, ptr %size.addr, align 1
  %conv11 = sext i8 %6 to i32
  %7 = load i32, ptr %val.addr, align 4
  call void (ptr, ...) @qemu_log(ptr noundef @.str.2, i32 noundef %call10, i64 noundef %3, i64 noundef %4, i32 noundef %5, i32 noundef %conv11, i32 noundef %7)
  br label %if.end

if.else:                                          ; preds = %if.then
  %8 = load i32, ptr %addr.addr, align 4
  %9 = load i8, ptr %size.addr, align 1
  %conv12 = sext i8 %9 to i32
  %10 = load i32, ptr %val.addr, align 4
  call void (ptr, ...) @qemu_log(ptr noundef @.str.3, i32 noundef %8, i32 noundef %conv12, i32 noundef %10)
  br label %if.end

if.end:                                           ; preds = %if.else, %if.then8
  br label %if.end13

if.end13:                                         ; preds = %if.end, %land.lhs.true5, %land.lhs.true, %entry
  ret void
}

; Function Attrs: nounwind sspstrong uwtable
define internal void @stl_le_p(ptr noundef %ptr, i32 noundef %v) #0 {
entry:
  %ptr.addr = alloca ptr, align 8
  %v.addr = alloca i32, align 4
  store ptr %ptr, ptr %ptr.addr, align 8
  store i32 %v, ptr %v.addr, align 4
  %0 = load ptr, ptr %ptr.addr, align 8
  %1 = load i32, ptr %v.addr, align 4
  call void @stl_he_p(ptr noundef %0, i32 noundef %1)
  ret void
}

; Function Attrs: nounwind sspstrong uwtable
define internal void @trace_cpu_out(i32 noundef %addr, i8 noundef signext %size, i32 noundef %val) #0 {
entry:
  %addr.addr = alloca i32, align 4
  %size.addr = alloca i8, align 1
  %val.addr = alloca i32, align 4
  store i32 %addr, ptr %addr.addr, align 4
  store i8 %size, ptr %size.addr, align 1
  store i32 %val, ptr %val.addr, align 4
  %0 = load i32, ptr %addr.addr, align 4
  %1 = load i8, ptr %size.addr, align 1
  %2 = load i32, ptr %val.addr, align 4
  call void @_nocheck__trace_cpu_out(i32 noundef %0, i8 noundef signext %1, i32 noundef %2)
  ret void
}

; Function Attrs: nounwind sspstrong uwtable
define dso_local void @cpu_outl(i32 noundef %addr, i32 noundef %val) #0 {
entry:
  %addr.addr = alloca i32, align 4
  %val.addr = alloca i32, align 4
  %buf = alloca [4 x i8], align 1
  %.compoundliteral = alloca %struct.MemTxAttrs, align 4
  store i32 %addr, ptr %addr.addr, align 4
  store i32 %val, ptr %val.addr, align 4
  %0 = load i32, ptr %addr.addr, align 4
  %1 = load i32, ptr %val.addr, align 4
  call void @trace_cpu_out(i32 noundef %0, i8 noundef signext 108, i32 noundef %1)
  %arraydecay = getelementptr inbounds [4 x i8], ptr %buf, i64 0, i64 0
  %2 = load i32, ptr %val.addr, align 4
  call void @stl_le_p(ptr noundef %arraydecay, i32 noundef %2)
  %3 = load i32, ptr %addr.addr, align 4
  %conv = zext i32 %3 to i64
  %bf.load = load i32, ptr %.compoundliteral, align 4
  %bf.clear = and i32 %bf.load, -2
  %bf.set = or i32 %bf.clear, 1
  store i32 %bf.set, ptr %.compoundliteral, align 4
  %bf.load1 = load i32, ptr %.compoundliteral, align 4
  %bf.clear2 = and i32 %bf.load1, -3
  %bf.set3 = or i32 %bf.clear2, 0
  store i32 %bf.set3, ptr %.compoundliteral, align 4
  %bf.load4 = load i32, ptr %.compoundliteral, align 4
  %bf.clear5 = and i32 %bf.load4, -13
  %bf.set6 = or i32 %bf.clear5, 0
  store i32 %bf.set6, ptr %.compoundliteral, align 4
  %bf.load7 = load i32, ptr %.compoundliteral, align 4
  %bf.clear8 = and i32 %bf.load7, -17
  %bf.set9 = or i32 %bf.clear8, 0
  store i32 %bf.set9, ptr %.compoundliteral, align 4
  %bf.load10 = load i32, ptr %.compoundliteral, align 4
  %bf.clear11 = and i32 %bf.load10, -33
  %bf.set12 = or i32 %bf.clear11, 0
  store i32 %bf.set12, ptr %.compoundliteral, align 4
  %bf.load13 = load i32, ptr %.compoundliteral, align 4
  %bf.clear14 = and i32 %bf.load13, -4194241
  %bf.set15 = or i32 %bf.clear14, 0
  store i32 %bf.set15, ptr %.compoundliteral, align 4
  %bf.load16 = load i32, ptr %.compoundliteral, align 4
  %bf.clear17 = and i32 %bf.load16, -4194305
  %bf.set18 = or i32 %bf.clear17, 0
  store i32 %bf.set18, ptr %.compoundliteral, align 4
  %bf.load19 = load i32, ptr %.compoundliteral, align 4
  %bf.clear20 = and i32 %bf.load19, -8388609
  %bf.set21 = or i32 %bf.clear20, 0
  store i32 %bf.set21, ptr %.compoundliteral, align 4
  %bf.load22 = load i32, ptr %.compoundliteral, align 4
  %bf.clear23 = and i32 %bf.load22, -16777217
  %bf.set24 = or i32 %bf.clear23, 0
  store i32 %bf.set24, ptr %.compoundliteral, align 4
  %bf.load25 = load i32, ptr %.compoundliteral, align 4
  %bf.clear26 = and i32 %bf.load25, -33554433
  %bf.set27 = or i32 %bf.clear26, 0
  store i32 %bf.set27, ptr %.compoundliteral, align 4
  %arraydecay28 = getelementptr inbounds [4 x i8], ptr %buf, i64 0, i64 0
  %coerce.dive = getelementptr inbounds %struct.MemTxAttrs, ptr %.compoundliteral, i32 0, i32 0
  %4 = load i32, ptr %coerce.dive, align 4
  %call = call i32 @address_space_write(ptr noundef @address_space_io, i64 noundef %conv, i32 %4, ptr noundef %arraydecay28, i64 noundef 4)
  ret void
}